; ModuleID = '35/2168.c'
source_filename = "35/2168.c"
target datalayout = "e-m:e-p270:32:32-p271:32:32-p272:64:64-i64:64-f80:128-n8:16:32:64-S128"
target triple = "x86_64-pc-linux-gnu"

@.str = private unnamed_addr constant [6 x i8] c"%d,%d\00", align 1
@.str.1 = private unnamed_addr constant [3 x i8] c"%d\00", align 1
@.str.2 = private unnamed_addr constant [6 x i8] c"%d+%d\00", align 1
@.str.3 = private unnamed_addr constant [3 x i8] c"No\00", align 1

; Function Attrs: noinline nounwind uwtable
define dso_local i32 @main() #0 {
  %1 = alloca i32, align 4
  %2 = alloca i32, align 4
  %3 = alloca i32, align 4
  %4 = alloca i32, align 4
  %5 = alloca i32, align 4
  %6 = alloca i32, align 4
  %7 = alloca [8 x [8 x i32]], align 16
  %8 = alloca [8 x i32], align 16
  store i32 0, i32* %1, align 4
  store i32 0, i32* %6, align 4
  %9 = call i32 (i8*, ...) @__isoc99_scanf(i8* getelementptr inbounds ([6 x i8], [6 x i8]* @.str, i64 0, i64 0), i32* %3, i32* %2)
  %10 = bitcast [8 x i32]* %8 to i8*
  call void @llvm.memset.p0i8.i64(i8* align 16 %10, i8 0, i64 32, i1 false)
  store i32 0, i32* %4, align 4
  br label %11

11:                                               ; preds = %56, %0
  %12 = load i32, i32* %4, align 4
  %13 = load i32, i32* %3, align 4
  %14 = icmp slt i32 %12, %13
  br i1 %14, label %15, label %59

15:                                               ; preds = %11
  store i32 0, i32* %5, align 4
  br label %16

16:                                               ; preds = %52, %15
  %17 = load i32, i32* %5, align 4
  %18 = load i32, i32* %2, align 4
  %19 = icmp slt i32 %17, %18
  br i1 %19, label %20, label %55

20:                                               ; preds = %16
  %21 = load i32, i32* %4, align 4
  %22 = sext i32 %21 to i64
  %23 = getelementptr inbounds [8 x [8 x i32]], [8 x [8 x i32]]* %7, i64 0, i64 %22
  %24 = load i32, i32* %5, align 4
  %25 = sext i32 %24 to i64
  %26 = getelementptr inbounds [8 x i32], [8 x i32]* %23, i64 0, i64 %25
  %27 = call i32 (i8*, ...) @__isoc99_scanf(i8* getelementptr inbounds ([3 x i8], [3 x i8]* @.str.1, i64 0, i64 0), i32* %26)
  %28 = load i32, i32* %4, align 4
  %29 = sext i32 %28 to i64
  %30 = getelementptr inbounds [8 x [8 x i32]], [8 x [8 x i32]]* %7, i64 0, i64 %29
  %31 = load i32, i32* %4, align 4
  %32 = sext i32 %31 to i64
  %33 = getelementptr inbounds [8 x i32], [8 x i32]* %8, i64 0, i64 %32
  %34 = load i32, i32* %33, align 4
  %35 = sext i32 %34 to i64
  %36 = getelementptr inbounds [8 x i32], [8 x i32]* %30, i64 0, i64 %35
  %37 = load i32, i32* %36, align 4
  %38 = load i32, i32* %4, align 4
  %39 = sext i32 %38 to i64
  %40 = getelementptr inbounds [8 x [8 x i32]], [8 x [8 x i32]]* %7, i64 0, i64 %39
  %41 = load i32, i32* %5, align 4
  %42 = sext i32 %41 to i64
  %43 = getelementptr inbounds [8 x i32], [8 x i32]* %40, i64 0, i64 %42
  %44 = load i32, i32* %43, align 4
  %45 = icmp slt i32 %37, %44
  br i1 %45, label %46, label %51

46:                                               ; preds = %20
  %47 = load i32, i32* %5, align 4
  %48 = load i32, i32* %4, align 4
  %49 = sext i32 %48 to i64
  %50 = getelementptr inbounds [8 x i32], [8 x i32]* %8, i64 0, i64 %49
  store i32 %47, i32* %50, align 4
  br label %51

51:                                               ; preds = %46, %20
  br label %52

52:                                               ; preds = %51
  %53 = load i32, i32* %5, align 4
  %54 = add nsw i32 %53, 1
  store i32 %54, i32* %5, align 4
  br label %16

55:                                               ; preds = %16
  br label %56

56:                                               ; preds = %55
  %57 = load i32, i32* %4, align 4
  %58 = add nsw i32 %57, 1
  store i32 %58, i32* %4, align 4
  br label %11

59:                                               ; preds = %11
  store i32 0, i32* %4, align 4
  br label %60

60:                                               ; preds = %109, %59
  %61 = load i32, i32* %4, align 4
  %62 = load i32, i32* %3, align 4
  %63 = icmp slt i32 %61, %62
  br i1 %63, label %64, label %112

64:                                               ; preds = %60
  store i32 0, i32* %5, align 4
  br label %65

65:                                               ; preds = %105, %64
  %66 = load i32, i32* %5, align 4
  %67 = load i32, i32* %3, align 4
  %68 = icmp slt i32 %66, %67
  br i1 %68, label %69, label %108

69:                                               ; preds = %65
  %70 = load i32, i32* %4, align 4
  %71 = sext i32 %70 to i64
  %72 = getelementptr inbounds [8 x [8 x i32]], [8 x [8 x i32]]* %7, i64 0, i64 %71
  %73 = load i32, i32* %4, align 4
  %74 = sext i32 %73 to i64
  %75 = getelementptr inbounds [8 x i32], [8 x i32]* %8, i64 0, i64 %74
  %76 = load i32, i32* %75, align 4
  %77 = sext i32 %76 to i64
  %78 = getelementptr inbounds [8 x i32], [8 x i32]* %72, i64 0, i64 %77
  %79 = load i32, i32* %78, align 4
  %80 = load i32, i32* %5, align 4
  %81 = sext i32 %80 to i64
  %82 = getelementptr inbounds [8 x [8 x i32]], [8 x [8 x i32]]* %7, i64 0, i64 %81
  %83 = load i32, i32* %4, align 4
  %84 = sext i32 %83 to i64
  %85 = getelementptr inbounds [8 x i32], [8 x i32]* %8, i64 0, i64 %84
  %86 = load i32, i32* %85, align 4
  %87 = sext i32 %86 to i64
  %88 = getelementptr inbounds [8 x i32], [8 x i32]* %82, i64 0, i64 %87
  %89 = load i32, i32* %88, align 4
  %90 = icmp sgt i32 %79, %89
  br i1 %90, label %91, label %92

91:                                               ; preds = %69
  br label %108

92:                                               ; preds = %69
  %93 = load i32, i32* %5, align 4
  %94 = load i32, i32* %3, align 4
  %95 = sub nsw i32 %94, 1
  %96 = icmp eq i32 %93, %95
  br i1 %96, label %97, label %104

97:                                               ; preds = %92
  %98 = load i32, i32* %4, align 4
  %99 = load i32, i32* %4, align 4
  %100 = sext i32 %99 to i64
  %101 = getelementptr inbounds [8 x i32], [8 x i32]* %8, i64 0, i64 %100
  %102 = load i32, i32* %101, align 4
  %103 = call i32 (i8*, ...) @printf(i8* getelementptr inbounds ([6 x i8], [6 x i8]* @.str.2, i64 0, i64 0), i32 %98, i32 %102)
  store i32 1, i32* %6, align 4
  br label %104

104:                                              ; preds = %97, %92
  br label %105

105:                                              ; preds = %104
  %106 = load i32, i32* %5, align 4
  %107 = add nsw i32 %106, 1
  store i32 %107, i32* %5, align 4
  br label %65

108:                                              ; preds = %91, %65
  br label %109

109:                                              ; preds = %108
  %110 = load i32, i32* %4, align 4
  %111 = add nsw i32 %110, 1
  store i32 %111, i32* %4, align 4
  br label %60

112:                                              ; preds = %60
  %113 = load i32, i32* %6, align 4
  %114 = icmp eq i32 %113, 0
  br i1 %114, label %115, label %117

115:                                              ; preds = %112
  %116 = call i32 (i8*, ...) @printf(i8* getelementptr inbounds ([3 x i8], [3 x i8]* @.str.3, i64 0, i64 0))
  br label %117

117:                                              ; preds = %115, %112
  ret i32 0
}

declare dso_local i32 @__isoc99_scanf(i8*, ...) #1

; Function Attrs: argmemonly nounwind willreturn
declare void @llvm.memset.p0i8.i64(i8* nocapture writeonly, i8, i64, i1 immarg) #2

declare dso_local i32 @printf(i8*, ...) #1


!llvm.module.flags = !{!0}
!llvm.ident = !{!1}

!0 = !{i32 1, !"wchar_size", i32 4}
!1 = !{!"clang version 10.0.0-4ubuntu1 "}
